target datalayout = "e-m:e-p270:32:32-p271:32:32-p272:64:64-i64:64-i128:128-f80:128-n8:16:32:64-S128"
target triple = "x86_64-pc-linux-gnu"

; Function Attrs: nounwind uwtable
define internal i64 @lha_check_header_format(ptr noundef %0) #0 {
  %2 = alloca i64, align 8
  %3 = alloca ptr, align 8
  %4 = alloca ptr, align 8
  %5 = alloca i64, align 8
  %6 = alloca i32, align 4
  store ptr %0, ptr %3, align 8, !tbaa !31
  call void @llvm.lifetime.start.p0(i64 8, ptr %4) #11
  %7 = load ptr, ptr %3, align 8, !tbaa !31
  store ptr %7, ptr %4, align 8, !tbaa !28
  call void @llvm.lifetime.start.p0(i64 8, ptr %5) #11
  %8 = load ptr, ptr %4, align 8, !tbaa !28
  %9 = getelementptr inbounds i8, ptr %8, i64 5
  %10 = load i8, ptr %9, align 1, !tbaa !29
  %11 = zext i8 %10 to i32
  switch i32 %11, label %110 [
    i32 48, label %12
    i32 49, label %12
    i32 50, label %12
    i32 51, label %12
    i32 52, label %12
    i32 53, label %12
    i32 54, label %12
    i32 55, label %12
    i32 100, label %12
    i32 115, label %12
    i32 104, label %106
    i32 122, label %107
    i32 108, label %108
    i32 45, label %109
  ]

12:                                               ; preds = %1, %1, %1, %1, %1, %1, %1, %1, %1, %1
  store i64 4, ptr %5, align 8, !tbaa !30
  %13 = load ptr, ptr %4, align 8, !tbaa !28
  %14 = getelementptr inbounds i8, ptr %13, i64 0
  %15 = load i8, ptr %14, align 1, !tbaa !29
  %16 = zext i8 %15 to i32
  %17 = icmp eq i32 %16, 0
  br i1 %17, label %18, label %19

18:                                               ; preds = %12
  br label %111

19:                                               ; preds = %12
  %20 = load ptr, ptr %4, align 8, !tbaa !28
  %21 = getelementptr inbounds i8, ptr %20, i64 2
  %22 = load i8, ptr %21, align 1, !tbaa !29
  %23 = zext i8 %22 to i32
  %24 = icmp ne i32 %23, 45
  br i1 %24, label %37, label %25

25:                                               ; preds = %19
  %26 = load ptr, ptr %4, align 8, !tbaa !28
  %27 = getelementptr inbounds i8, ptr %26, i64 3
  %28 = load i8, ptr %27, align 1, !tbaa !29
  %29 = zext i8 %28 to i32
  %30 = icmp ne i32 %29, 108
  br i1 %30, label %37, label %31

31:                                               ; preds = %25
  %32 = load ptr, ptr %4, align 8, !tbaa !28
  %33 = getelementptr inbounds i8, ptr %32, i64 6
  %34 = load i8, ptr %33, align 1, !tbaa !29
  %35 = zext i8 %34 to i32
  %36 = icmp ne i32 %35, 45
  br i1 %36, label %37, label %38

37:                                               ; preds = %31, %25, %19
  br label %111

38:                                               ; preds = %31
  %39 = load ptr, ptr %4, align 8, !tbaa !28
  %40 = getelementptr inbounds i8, ptr %39, i64 4
  %41 = load i8, ptr %40, align 1, !tbaa !29
  %42 = zext i8 %41 to i32
  %43 = icmp eq i32 %42, 104
  br i1 %43, label %44, label %72

44:                                               ; preds = %38
  %45 = load ptr, ptr %4, align 8, !tbaa !28
  %46 = getelementptr inbounds i8, ptr %45, i64 5
  %47 = load i8, ptr %46, align 1, !tbaa !29
  %48 = zext i8 %47 to i32
  %49 = icmp eq i32 %48, 115
  br i1 %49, label %50, label %51

50:                                               ; preds = %44
  br label %111

51:                                               ; preds = %44
  %52 = load ptr, ptr %4, align 8, !tbaa !28
  %53 = getelementptr inbounds i8, ptr %52, i64 20
  %54 = load i8, ptr %53, align 1, !tbaa !29
  %55 = zext i8 %54 to i32
  %56 = icmp eq i32 %55, 0
  br i1 %56, label %57, label %58

57:                                               ; preds = %51
  store i64 0, ptr %2, align 8
  store i32 1, ptr %6, align 4
  br label %113

58:                                               ; preds = %51
  %59 = load ptr, ptr %4, align 8, !tbaa !28
  %60 = getelementptr inbounds i8, ptr %59, i64 20
  %61 = load i8, ptr %60, align 1, !tbaa !29
  %62 = zext i8 %61 to i32
  %63 = icmp sle i32 %62, 3
  br i1 %63, label %64, label %71

64:                                               ; preds = %58
  %65 = load ptr, ptr %4, align 8, !tbaa !28
  %66 = getelementptr inbounds i8, ptr %65, i64 19
  %67 = load i8, ptr %66, align 1, !tbaa !29
  %68 = zext i8 %67 to i32
  %69 = icmp eq i32 %68, 32
  br i1 %69, label %70, label %71

70:                                               ; preds = %64
  store i64 0, ptr %2, align 8
  store i32 1, ptr %6, align 4
  br label %113

71:                                               ; preds = %64, %58
  br label %72

72:                                               ; preds = %71, %38
  %73 = load ptr, ptr %4, align 8, !tbaa !28
  %74 = getelementptr inbounds i8, ptr %73, i64 4
  %75 = load i8, ptr %74, align 1, !tbaa !29
  %76 = zext i8 %75 to i32
  %77 = icmp eq i32 %76, 122
  br i1 %77, label %78, label %105

78:                                               ; preds = %72
  %79 = load ptr, ptr %4, align 8, !tbaa !28
  %80 = getelementptr inbounds i8, ptr %79, i64 20
  %81 = load i8, ptr %80, align 1, !tbaa !29
  %82 = zext i8 %81 to i32
  %83 = icmp ne i32 %82, 0
  br i1 %83, label %84, label %85

84:                                               ; preds = %78
  br label %111

85:                                               ; preds = %78
  %86 = load ptr, ptr %4, align 8, !tbaa !28
  %87 = getelementptr inbounds i8, ptr %86, i64 5
  %88 = load i8, ptr %87, align 1, !tbaa !29
  %89 = zext i8 %88 to i32
  %90 = icmp eq i32 %89, 115
  br i1 %90, label %103, label %91

91:                                               ; preds = %85
  %92 = load ptr, ptr %4, align 8, !tbaa !28
  %93 = getelementptr inbounds i8, ptr %92, i64 5
  %94 = load i8, ptr %93, align 1, !tbaa !29
  %95 = zext i8 %94 to i32
  %96 = icmp eq i32 %95, 52
  br i1 %96, label %103, label %97

97:                                               ; preds = %91
  %98 = load ptr, ptr %4, align 8, !tbaa !28
  %99 = getelementptr inbounds i8, ptr %98, i64 5
  %100 = load i8, ptr %99, align 1, !tbaa !29
  %101 = zext i8 %100 to i32
  %102 = icmp eq i32 %101, 53
  br i1 %102, label %103, label %104

103:                                              ; preds = %97, %91, %85
  store i64 0, ptr %2, align 8
  store i32 1, ptr %6, align 4
  br label %113

104:                                              ; preds = %97
  br label %105

105:                                              ; preds = %104, %72
  br label %111

106:                                              ; preds = %1
  store i64 1, ptr %5, align 8, !tbaa !30
  br label %111

107:                                              ; preds = %1
  store i64 1, ptr %5, align 8, !tbaa !30
  br label %111

108:                                              ; preds = %1
  store i64 2, ptr %5, align 8, !tbaa !30
  br label %111

109:                                              ; preds = %1
  store i64 3, ptr %5, align 8, !tbaa !30
  br label %111

110:                                              ; preds = %1
  store i64 4, ptr %5, align 8, !tbaa !30
  br label %111

111:                                              ; preds = %110, %109, %108, %107, %106, %105, %84, %50, %37, %18
  %112 = load i64, ptr %5, align 8, !tbaa !30
  store i64 %112, ptr %2, align 8
  store i32 1, ptr %6, align 4
  br label %113

113:                                              ; preds = %111, %103, %70, %57
  call void @llvm.lifetime.end.p0(i64 8, ptr %5) #11
  call void @llvm.lifetime.end.p0(i64 8, ptr %4) #11
  %114 = load i64, ptr %2, align 8
  ret i64 %114
}