; Function Attrs: mustprogress nofree norecurse nosync nounwind willreturn memory(argmem: read) uwtable
define internal fastcc range(i64 0, 5) i64 @lha_check_header_format(ptr noundef nonnull readonly captures(none) %0) unnamed_addr #5 {
  %2 = getelementptr inbounds nuw i8, ptr %0, i64 5
  %3 = load i8, ptr %2, align 1, !tbaa !4
  switch i8 %3, label %37 [
    i8 48, label %4
    i8 49, label %4
    i8 50, label %4
    i8 51, label %4
    i8 52, label %4
    i8 53, label %4
    i8 54, label %4
    i8 55, label %4
    i8 100, label %4
    i8 115, label %4
    i8 104, label %.thread
    i8 122, label %.thread
    i8 108, label %35
    i8 45, label %36
  ]

4:                                                ; preds = %1, %1, %1, %1, %1, %1, %1, %1, %1, %1
  %5 = load i8, ptr %0, align 1, !tbaa !4
  %6 = icmp eq i8 %5, 0
  br i1 %6, label %.thread, label %7

7:                                                ; preds = %4
  %8 = getelementptr inbounds nuw i8, ptr %0, i64 2
  %9 = load i8, ptr %8, align 1, !tbaa !4
  %.not = icmp eq i8 %9, 45
  br i1 %.not, label %10, label %.thread

10:                                               ; preds = %7
  %11 = getelementptr inbounds nuw i8, ptr %0, i64 3
  %12 = load i8, ptr %11, align 1, !tbaa !4
  %.not20 = icmp eq i8 %12, 108
  br i1 %.not20, label %13, label %.thread

13:                                               ; preds = %10
  %14 = getelementptr inbounds nuw i8, ptr %0, i64 6
  %15 = load i8, ptr %14, align 1, !tbaa !4
  %.not21 = icmp eq i8 %15, 45
  br i1 %.not21, label %16, label %.thread

16:                                               ; preds = %13
  %17 = getelementptr inbounds nuw i8, ptr %0, i64 4
  %18 = load i8, ptr %17, align 1, !tbaa !4
  switch i8 %18, label %.thread [
    i8 104, label %19
    i8 122, label %31
  ]

19:                                               ; preds = %16
  %20 = icmp eq i8 %3, 115
  br i1 %20, label %.thread, label %21

21:                                               ; preds = %19
  %22 = getelementptr inbounds nuw i8, ptr %0, i64 20
  %23 = load i8, ptr %22, align 1, !tbaa !4
  %24 = icmp eq i8 %23, 0
  br i1 %24, label %38, label %25

25:                                               ; preds = %21
  %26 = icmp ult i8 %23, 4
  br i1 %26, label %27, label %.thread

27:                                               ; preds = %25
  %28 = getelementptr inbounds nuw i8, ptr %0, i64 19
  %29 = load i8, ptr %28, align 1, !tbaa !4
  %30 = icmp eq i8 %29, 32
  br i1 %30, label %38, label %.thread

31:                                               ; preds = %16
  %32 = getelementptr inbounds nuw i8, ptr %0, i64 20
  %33 = load i8, ptr %32, align 1, !tbaa !4
  %.not22 = icmp eq i8 %33, 0
  br i1 %.not22, label %34, label %.thread

34:                                               ; preds = %31
  switch i8 %3, label %.thread [
    i8 115, label %38
    i8 52, label %38
    i8 53, label %38
  ]

35:                                               ; preds = %1
  br label %.thread

36:                                               ; preds = %1
  br label %.thread

37:                                               ; preds = %1
  br label %.thread

.thread:                                          ; preds = %16, %27, %25, %1, %1, %34, %31, %19, %7, %10, %13, %4, %37, %36, %35
  %.0 = phi i64 [ 4, %37 ], [ 3, %36 ], [ 2, %35 ], [ 4, %4 ], [ 4, %7 ], [ 4, %10 ], [ 4, %13 ], [ 4, %19 ], [ 4, %31 ], [ 4, %34 ], [ 1, %1 ], [ 1, %1 ], [ 4, %25 ], [ 4, %27 ], [ 4, %16 ]
  br label %38

38:                                               ; preds = %34, %34, %34, %27, %21, %.thread
  %.017 = phi i64 [ %.0, %.thread ], [ 0, %21 ], [ 0, %27 ], [ 0, %34 ], [ 0, %34 ], [ 0, %34 ]
  ret i64 %.017
}